; Function Attrs: nounwind uwtable
define internal fastcc range(i32 0, 2) i32 @asn1_expect_algo(ptr noundef %0, ptr noundef nonnull captures(none) %1, ptr noundef nonnull captures(none) %2) unnamed_addr #0 {
  %4 = alloca %struct.cli_asn1, align 8
  %5 = alloca %struct.cli_asn1, align 8
  %6 = alloca i32, align 4
  call void @llvm.lifetime.start.p0(i64 24, ptr nonnull %5) #11
  call void @llvm.lifetime.start.p0(i64 4, ptr nonnull %6) #11
  %7 = load ptr, ptr %1, align 8, !tbaa !61
  %8 = call fastcc i32 @asn1_get_obj(ptr noundef %0, ptr noundef %7, ptr noundef nonnull %2, ptr noundef nonnull %5)
  %.not.i = icmp eq i32 %8, 0
  br i1 %.not.i, label %9, label %asn1_expect_objtype.exit.thread

9:                                                ; preds = %3
  %10 = load i8, ptr %5, align 8, !tbaa !15
  %.not13.i = icmp eq i8 %10, 48
  br i1 %.not13.i, label %asn1_expect_objtype.exit, label %11

11:                                               ; preds = %9
  %12 = zext i8 %10 to i32
  tail call void (ptr, ...) @cli_dbgmsg(ptr noundef nonnull @.str.275, i32 noundef 48, i32 noundef %12) #11
  br label %asn1_expect_objtype.exit.thread

asn1_expect_objtype.exit:                         ; preds = %9
  %13 = getelementptr inbounds nuw i8, ptr %5, i64 4
  %14 = load i32, ptr %13, align 4, !tbaa !16
  store i32 %14, ptr %6, align 4, !tbaa !17
  %15 = getelementptr inbounds nuw i8, ptr %5, i64 16
  %16 = load ptr, ptr %15, align 8, !tbaa !12
  store ptr %16, ptr %1, align 8, !tbaa !61
  %17 = getelementptr inbounds nuw i8, ptr %5, i64 8
  %18 = call fastcc i32 @asn1_expect_obj(ptr noundef %0, ptr noundef %17, ptr noundef %6, i8 noundef zeroext 6, i32 noundef 9, ptr noundef nonnull @.str.111)
  %.not14 = icmp eq i32 %18, 0
  br i1 %.not14, label %19, label %asn1_expect_objtype.exit.thread

19:                                               ; preds = %asn1_expect_objtype.exit
  %20 = load i32, ptr %6, align 4, !tbaa !17
  %.not15 = icmp eq i32 %20, 0
  br i1 %.not15, label %asn1_expect_objtype.exit.thread, label %21

21:                                               ; preds = %19
  call void @llvm.lifetime.start.p0(i64 24, ptr nonnull %4) #11
  %22 = load ptr, ptr %17, align 8, !tbaa !61
  %23 = call fastcc i32 @asn1_get_obj(ptr noundef %0, ptr noundef %22, ptr noundef nonnull %6, ptr noundef nonnull %4)
  %.not.i.i = icmp eq i32 %23, 0
  br i1 %.not.i.i, label %24, label %31

24:                                               ; preds = %21
  %25 = load i8, ptr %4, align 8, !tbaa !15
  %.not13.i.i = icmp eq i8 %25, 5
  br i1 %.not13.i.i, label %asn1_expect_objtype.exit.i, label %26

26:                                               ; preds = %24
  %27 = zext i8 %25 to i32
  tail call void (ptr, ...) @cli_dbgmsg(ptr noundef nonnull @.str.275, i32 noundef 5, i32 noundef %27) #11
  br label %31

asn1_expect_objtype.exit.i:                       ; preds = %24
  %28 = getelementptr inbounds nuw i8, ptr %4, i64 4
  %29 = load i32, ptr %28, align 4, !tbaa !16
  %.not17.i = icmp eq i32 %29, 0
  br i1 %.not17.i, label %32, label %30

30:                                               ; preds = %asn1_expect_objtype.exit.i
  tail call void (ptr, ...) @cli_dbgmsg(ptr noundef nonnull @.str.276, i32 noundef 0, i32 noundef %29) #11
  br label %31

31:                                               ; preds = %30, %26, %21
  call void @llvm.lifetime.end.p0(i64 24, ptr nonnull %4) #11
  tail call void (ptr, ...) @cli_dbgmsg(ptr noundef nonnull @.str.225) #11
  br label %asn1_expect_objtype.exit.thread

32:                                               ; preds = %asn1_expect_objtype.exit.i
  call void @llvm.lifetime.end.p0(i64 24, ptr nonnull %4) #11
  %.pr = load i32, ptr %6, align 4, !tbaa !17
  %.not17 = icmp eq i32 %.pr, 0
  br i1 %.not17, label %asn1_expect_objtype.exit.thread, label %33

33:                                               ; preds = %32
  tail call void (ptr, ...) @cli_dbgmsg(ptr noundef nonnull @.str.226) #11
  br label %asn1_expect_objtype.exit.thread

asn1_expect_objtype.exit.thread:                  ; preds = %19, %3, %11, %32, %asn1_expect_objtype.exit, %33, %31
  %.0 = phi i32 [ 1, %31 ], [ 1, %33 ], [ 1, %asn1_expect_objtype.exit ], [ 0, %32 ], [ 1, %11 ], [ 1, %3 ], [ 0, %19 ]
  call void @llvm.lifetime.end.p0(i64 4, ptr nonnull %6) #11
  call void @llvm.lifetime.end.p0(i64 24, ptr nonnull %5) #11
  ret i32 %.0
}